; Function Attrs: nounwind uwtable
define noundef i32 @unzip_search_add(ptr nocapture noundef %0, ptr noundef %1, i64 noundef %2) local_unnamed_addr #0 {
  tail call void (ptr, ...) @cli_dbgmsg(ptr noundef nonnull @.str.21) #12
  %4 = getelementptr inbounds i8, ptr %0, i64 160
  %5 = load i32, ptr %4, align 8
  %6 = icmp sgt i32 %5, 9
  br i1 %6, label %7, label %8

7:                                                ; preds = %3
  tail call void (ptr, ...) @cli_dbgmsg(ptr noundef nonnull @.str.22) #12
  br label %18

8:                                                ; preds = %3
  tail call void (ptr, ...) @cli_dbgmsg(ptr noundef nonnull @.str.23, ptr noundef %1, i64 noundef %2) #12
  %9 = load i32, ptr %4, align 8
  %10 = sext i32 %9 to i64
  %11 = getelementptr inbounds [10 x ptr], ptr %0, i64 0, i64 %10
  store ptr %1, ptr %11, align 8
  %12 = getelementptr inbounds i8, ptr %0, i64 80
  %13 = load i32, ptr %4, align 8
  %14 = sext i32 %13 to i64
  %15 = getelementptr inbounds [10 x i64], ptr %12, i64 0, i64 %14
  store i64 %2, ptr %15, align 8
  %16 = load i32, ptr %4, align 8
  %17 = add nsw i32 %16, 1
  store i32 %17, ptr %4, align 8
  br label %18

18:                                               ; preds = %8, %7
  %.0 = phi i32 [ 22, %7 ], [ 0, %8 ]
  ret i32 %.0
}